target datalayout = "e-m:e-p270:32:32-p271:32:32-p272:64:64-i64:64-i128:128-f80:128-n8:16:32:64-S128"
target triple = "x86_64-unknown-linux-gnu"

%struct.IDEDMA = type { ptr, %struct.QEMUIOVector, ptr }
%struct.QEMUIOVector = type { ptr, i32, %union.anon }
%union.anon = type { %struct.anon }
%struct.anon = type { i32, %struct.iovec }
%struct.iovec = type { ptr, i64 }
%struct.IDEDMAOps = type { ptr, ptr, ptr, ptr, ptr, ptr, ptr, ptr, ptr, ptr }
%struct.IDEBus = type { %struct.BusState, ptr, ptr, [2 x %struct.IDEState], ptr, i32, i32, ptr, i8, i8, ptr, i32, i8, i64, i32, %struct.PortioList, %struct.PortioList, ptr }
%struct.BusState = type { %struct.Object, ptr, ptr, ptr, i32, i8, i8, i32, %union.BusChildHead, %struct.BusStateEntry, %struct.ResettableState }
%struct.Object = type { ptr, ptr, ptr, i32, ptr }
%union.BusChildHead = type { %struct.QTailQLink }
%struct.QTailQLink = type { ptr, ptr }
%struct.BusStateEntry = type { ptr, ptr }
%struct.ResettableState = type { i32, i8, i8 }
%struct.IDEState = type { ptr, i8, i32, i32, i32, i32, i32, i32, i32, i64, i32, i32, [512 x i8], i32, [21 x i8], [41 x i8], i64, i8, i8, i32, i8, i8, i8, i8, i8, i8, i8, i8, i8, i8, i8, i8, i8, ptr, [9 x i8], %struct.unreported_events, i8, i8, i8, i8, i8, i32, i32, i32, i32, i32, i32, %struct.BlockAcctCookie, ptr, %struct.QEMUIOVector, %struct.anon.1, i64, i32, %struct.QEMUSGList, i32, ptr, ptr, ptr, ptr, i32, i32, i32, i8, ptr, i32, i8, i32, ptr, i32, i32, i8, i8, i32, i8, ptr, i32 }
%struct.unreported_events = type { i8, i8 }
%struct.BlockAcctCookie = type { i64, i64, i32 }
%struct.anon.1 = type { ptr }
%struct.QEMUSGList = type { ptr, i32, i32, i64, ptr, ptr }
%struct.PortioList = type { ptr, ptr, ptr, i32, ptr, ptr, ptr, i8 }

; Function Attrs: nounwind sspstrong uwtable
define internal void @ide_cmd_done(ptr noundef %s) #0 {
entry:
  %s.addr = alloca ptr, align 8
  store ptr %s, ptr %s.addr, align 8
  %0 = load ptr, ptr %s.addr, align 8
  %bus = getelementptr inbounds %struct.IDEState, ptr %0, i32 0, i32 0
  %1 = load ptr, ptr %bus, align 8
  %dma = getelementptr inbounds %struct.IDEBus, ptr %1, i32 0, i32 7
  %2 = load ptr, ptr %dma, align 8
  %ops = getelementptr inbounds %struct.IDEDMA, ptr %2, i32 0, i32 0
  %3 = load ptr, ptr %ops, align 8
  %cmd_done = getelementptr inbounds %struct.IDEDMAOps, ptr %3, i32 0, i32 8
  %4 = load ptr, ptr %cmd_done, align 8
  %tobool = icmp ne ptr %4, null
  br i1 %tobool, label %if.then, label %if.end

if.then:                                          ; preds = %entry
  %5 = load ptr, ptr %s.addr, align 8
  %bus1 = getelementptr inbounds %struct.IDEState, ptr %5, i32 0, i32 0
  %6 = load ptr, ptr %bus1, align 8
  %dma2 = getelementptr inbounds %struct.IDEBus, ptr %6, i32 0, i32 7
  %7 = load ptr, ptr %dma2, align 8
  %ops3 = getelementptr inbounds %struct.IDEDMA, ptr %7, i32 0, i32 0
  %8 = load ptr, ptr %ops3, align 8
  %cmd_done4 = getelementptr inbounds %struct.IDEDMAOps, ptr %8, i32 0, i32 8
  %9 = load ptr, ptr %cmd_done4, align 8
  %10 = load ptr, ptr %s.addr, align 8
  %bus5 = getelementptr inbounds %struct.IDEState, ptr %10, i32 0, i32 0
  %11 = load ptr, ptr %bus5, align 8
  %dma6 = getelementptr inbounds %struct.IDEBus, ptr %11, i32 0, i32 7
  %12 = load ptr, ptr %dma6, align 8
  call void %9(ptr noundef %12)
  br label %if.end

if.end:                                           ; preds = %if.then, %entry
  ret void
}

; Function Attrs: nounwind sspstrong uwtable
define internal void @ide_transfer_halt(ptr noundef %s) #0 {
entry:
  %s.addr = alloca ptr, align 8
  store ptr %s, ptr %s.addr, align 8
  %0 = load ptr, ptr %s.addr, align 8
  %end_transfer_func = getelementptr inbounds %struct.IDEState, ptr %0, i32 0, i32 55
  store ptr @ide_transfer_stop, ptr %end_transfer_func, align 8
  %1 = load ptr, ptr %s.addr, align 8
  %io_buffer = getelementptr inbounds %struct.IDEState, ptr %1, i32 0, i32 58
  %2 = load ptr, ptr %io_buffer, align 8
  %3 = load ptr, ptr %s.addr, align 8
  %data_ptr = getelementptr inbounds %struct.IDEState, ptr %3, i32 0, i32 56
  store ptr %2, ptr %data_ptr, align 8
  %4 = load ptr, ptr %s.addr, align 8
  %io_buffer1 = getelementptr inbounds %struct.IDEState, ptr %4, i32 0, i32 58
  %5 = load ptr, ptr %io_buffer1, align 8
  %6 = load ptr, ptr %s.addr, align 8
  %data_end = getelementptr inbounds %struct.IDEState, ptr %6, i32 0, i32 57
  store ptr %5, ptr %data_end, align 8
  %7 = load ptr, ptr %s.addr, align 8
  %status = getelementptr inbounds %struct.IDEState, ptr %7, i32 0, i32 29
  %8 = load i8, ptr %status, align 1
  %conv = zext i8 %8 to i32
  %and = and i32 %conv, -9
  %conv2 = trunc i32 %and to i8
  store i8 %conv2, ptr %status, align 1
  ret void
}

; Function Attrs: nounwind sspstrong uwtable
define dso_local void @ide_transfer_stop(ptr noundef %s) #0 {
entry:
  %s.addr = alloca ptr, align 8
  store ptr %s, ptr %s.addr, align 8
  %0 = load ptr, ptr %s.addr, align 8
  call void @ide_transfer_halt(ptr noundef %0)
  %1 = load ptr, ptr %s.addr, align 8
  call void @ide_cmd_done(ptr noundef %1)
  ret void
}

; Function Attrs: nounwind sspstrong uwtable
define dso_local void @ide_transfer_start(ptr noundef %s, ptr noundef %buf, i32 noundef %size, ptr noundef %end_transfer_func) #0 {
entry:
  %s.addr = alloca ptr, align 8
  %buf.addr = alloca ptr, align 8
  %size.addr = alloca i32, align 4
  %end_transfer_func.addr = alloca ptr, align 8
  store ptr %s, ptr %s.addr, align 8
  store ptr %buf, ptr %buf.addr, align 8
  store i32 %size, ptr %size.addr, align 4
  store ptr %end_transfer_func, ptr %end_transfer_func.addr, align 8
  %0 = load ptr, ptr %s.addr, align 8
  %1 = load ptr, ptr %buf.addr, align 8
  %2 = load i32, ptr %size.addr, align 4
  %3 = load ptr, ptr %end_transfer_func.addr, align 8
  %call = call zeroext i1 @ide_transfer_start_norecurse(ptr noundef %0, ptr noundef %1, i32 noundef %2, ptr noundef %3)
  br i1 %call, label %if.then, label %if.end

if.then:                                          ; preds = %entry
  %4 = load ptr, ptr %end_transfer_func.addr, align 8
  %5 = load ptr, ptr %s.addr, align 8
  call void %4(ptr noundef %5)
  br label %if.end

if.end:                                           ; preds = %if.then, %entry
  ret void
}

; Function Attrs: nounwind sspstrong uwtable
define internal void @ide_cmd_lba48_transform(ptr noundef %s, i32 noundef %lba48) #0 {
entry:
  %s.addr = alloca ptr, align 8
  %lba48.addr = alloca i32, align 4
  %lo = alloca i32, align 4
  %hi = alloca i32, align 4
  store ptr %s, ptr %s.addr, align 8
  store i32 %lba48, ptr %lba48.addr, align 4
  %0 = load i32, ptr %lba48.addr, align 4
  %conv = trunc i32 %0 to i8
  %1 = load ptr, ptr %s.addr, align 8
  %lba481 = getelementptr inbounds %struct.IDEState, ptr %1, i32 0, i32 32
  store i8 %conv, ptr %lba481, align 4
  %2 = load ptr, ptr %s.addr, align 8
  %lba482 = getelementptr inbounds %struct.IDEState, ptr %2, i32 0, i32 32
  %3 = load i8, ptr %lba482, align 4
  %tobool = icmp ne i8 %3, 0
  br i1 %tobool, label %if.else, label %if.then

if.then:                                          ; preds = %entry
  %4 = load ptr, ptr %s.addr, align 8
  %nsector = getelementptr inbounds %struct.IDEState, ptr %4, i32 0, i32 19
  %5 = load i32, ptr %nsector, align 4
  %tobool3 = icmp ne i32 %5, 0
  br i1 %tobool3, label %if.end, label %if.then4

if.then4:                                         ; preds = %if.then
  %6 = load ptr, ptr %s.addr, align 8
  %nsector5 = getelementptr inbounds %struct.IDEState, ptr %6, i32 0, i32 19
  store i32 256, ptr %nsector5, align 4
  br label %if.end

if.end:                                           ; preds = %if.then4, %if.then
  br label %if.end17

if.else:                                          ; preds = %entry
  %7 = load ptr, ptr %s.addr, align 8
  %nsector6 = getelementptr inbounds %struct.IDEState, ptr %7, i32 0, i32 19
  %8 = load i32, ptr %nsector6, align 4
  %tobool7 = icmp ne i32 %8, 0
  br i1 %tobool7, label %if.else11, label %land.lhs.true

land.lhs.true:                                    ; preds = %if.else
  %9 = load ptr, ptr %s.addr, align 8
  %hob_nsector = getelementptr inbounds %struct.IDEState, ptr %9, i32 0, i32 24
  %10 = load i8, ptr %hob_nsector, align 4
  %tobool8 = icmp ne i8 %10, 0
  br i1 %tobool8, label %if.else11, label %if.then9

if.then9:                                         ; preds = %land.lhs.true
  %11 = load ptr, ptr %s.addr, align 8
  %nsector10 = getelementptr inbounds %struct.IDEState, ptr %11, i32 0, i32 19
  store i32 65536, ptr %nsector10, align 4
  br label %if.end16

if.else11:                                        ; preds = %land.lhs.true, %if.else
  %12 = load ptr, ptr %s.addr, align 8
  %nsector12 = getelementptr inbounds %struct.IDEState, ptr %12, i32 0, i32 19
  %13 = load i32, ptr %nsector12, align 4
  store i32 %13, ptr %lo, align 4
  %14 = load ptr, ptr %s.addr, align 8
  %hob_nsector13 = getelementptr inbounds %struct.IDEState, ptr %14, i32 0, i32 24
  %15 = load i8, ptr %hob_nsector13, align 4
  %conv14 = zext i8 %15 to i32
  store i32 %conv14, ptr %hi, align 4
  %16 = load i32, ptr %hi, align 4
  %shl = shl i32 %16, 8
  %17 = load i32, ptr %lo, align 4
  %or = or i32 %shl, %17
  %18 = load ptr, ptr %s.addr, align 8
  %nsector15 = getelementptr inbounds %struct.IDEState, ptr %18, i32 0, i32 19
  store i32 %or, ptr %nsector15, align 4
  br label %if.end16

if.end16:                                         ; preds = %if.else11, %if.then9
  br label %if.end17

if.end17:                                         ; preds = %if.end16, %if.end
  ret void
}

; Function Attrs: nounwind sspstrong uwtable
define dso_local void @ide_abort_command(ptr noundef %s) #0 {
entry:
  %s.addr = alloca ptr, align 8
  store ptr %s, ptr %s.addr, align 8
  %0 = load ptr, ptr %s.addr, align 8
  %status = getelementptr inbounds %struct.IDEState, ptr %0, i32 0, i32 29
  store i8 65, ptr %status, align 1
  %1 = load ptr, ptr %s.addr, align 8
  %error = getelementptr inbounds %struct.IDEState, ptr %1, i32 0, i32 18
  store i8 4, ptr %error, align 1
  %2 = load ptr, ptr %s.addr, align 8
  call void @ide_transfer_stop(ptr noundef %2)
  ret void
}

; Function Attrs: nounwind sspstrong uwtable
define internal zeroext i1 @cmd_write_multiple(ptr noundef %s, i8 noundef zeroext %cmd) #0 {
entry:
  %retval = alloca i1, align 1
  %s.addr = alloca ptr, align 8
  %cmd.addr = alloca i8, align 1
  %lba48 = alloca i8, align 1
  %n = alloca i32, align 4
  %_a13 = alloca i32, align 4
  %_b14 = alloca i32, align 4
  %tmp = alloca i32, align 4
  store ptr %s, ptr %s.addr, align 8
  store i8 %cmd, ptr %cmd.addr, align 1
  %0 = load i8, ptr %cmd.addr, align 1
  %conv = zext i8 %0 to i32
  %cmp = icmp eq i32 %conv, 57
  %frombool = zext i1 %cmp to i8
  store i8 %frombool, ptr %lba48, align 1
  %1 = load ptr, ptr %s.addr, align 8
  %blk = getelementptr inbounds %struct.IDEState, ptr %1, i32 0, i32 33
  %2 = load ptr, ptr %blk, align 8
  %tobool = icmp ne ptr %2, null
  br i1 %tobool, label %lor.lhs.false, label %if.then

lor.lhs.false:                                    ; preds = %entry
  %3 = load ptr, ptr %s.addr, align 8
  %mult_sectors = getelementptr inbounds %struct.IDEState, ptr %3, i32 0, i32 10
  %4 = load i32, ptr %mult_sectors, align 8
  %tobool2 = icmp ne i32 %4, 0
  br i1 %tobool2, label %if.end, label %if.then

if.then:                                          ; preds = %lor.lhs.false, %entry
  %5 = load ptr, ptr %s.addr, align 8
  call void @ide_abort_command(ptr noundef %5)
  store i1 true, ptr %retval, align 1
  br label %return

if.end:                                           ; preds = %lor.lhs.false
  %6 = load ptr, ptr %s.addr, align 8
  %7 = load i8, ptr %lba48, align 1
  %tobool3 = trunc i8 %7 to i1
  %conv4 = zext i1 %tobool3 to i32
  call void @ide_cmd_lba48_transform(ptr noundef %6, i32 noundef %conv4)
  %8 = load ptr, ptr %s.addr, align 8
  %mult_sectors5 = getelementptr inbounds %struct.IDEState, ptr %8, i32 0, i32 10
  %9 = load i32, ptr %mult_sectors5, align 8
  %10 = load ptr, ptr %s.addr, align 8
  %req_nb_sectors = getelementptr inbounds %struct.IDEState, ptr %10, i32 0, i32 54
  store i32 %9, ptr %req_nb_sectors, align 8
  %11 = load ptr, ptr %s.addr, align 8
  %nsector = getelementptr inbounds %struct.IDEState, ptr %11, i32 0, i32 19
  %12 = load i32, ptr %nsector, align 4
  store i32 %12, ptr %_a13, align 4
  %13 = load ptr, ptr %s.addr, align 8
  %req_nb_sectors6 = getelementptr inbounds %struct.IDEState, ptr %13, i32 0, i32 54
  %14 = load i32, ptr %req_nb_sectors6, align 8
  store i32 %14, ptr %_b14, align 4
  %15 = load i32, ptr %_a13, align 4
  %16 = load i32, ptr %_b14, align 4
  %cmp7 = icmp ult i32 %15, %16
  br i1 %cmp7, label %cond.true, label %cond.false

cond.true:                                        ; preds = %if.end
  %17 = load i32, ptr %_a13, align 4
  br label %cond.end

cond.false:                                       ; preds = %if.end
  %18 = load i32, ptr %_b14, align 4
  br label %cond.end

cond.end:                                         ; preds = %cond.false, %cond.true
  %cond = phi i32 [ %17, %cond.true ], [ %18, %cond.false ]
  store i32 %cond, ptr %tmp, align 4
  %19 = load i32, ptr %tmp, align 4
  store i32 %19, ptr %n, align 4
  %20 = load ptr, ptr %s.addr, align 8
  %status = getelementptr inbounds %struct.IDEState, ptr %20, i32 0, i32 29
  store i8 80, ptr %status, align 1
  %21 = load ptr, ptr %s.addr, align 8
  %22 = load ptr, ptr %s.addr, align 8
  %io_buffer = getelementptr inbounds %struct.IDEState, ptr %22, i32 0, i32 58
  %23 = load ptr, ptr %io_buffer, align 8
  %24 = load i32, ptr %n, align 4
  %mul = mul i32 512, %24
  call void @ide_transfer_start(ptr noundef %21, ptr noundef %23, i32 noundef %mul, ptr noundef @ide_sector_write)
  %25 = load ptr, ptr %s.addr, align 8
  %media_changed = getelementptr inbounds %struct.IDEState, ptr %25, i32 0, i32 68
  store i32 1, ptr %media_changed, align 8
  store i1 false, ptr %retval, align 1
  br label %return

return:                                           ; preds = %cond.end, %if.then
  %26 = load i1, ptr %retval, align 1
  ret i1 %26
}