; Function Attrs: nounwind sspstrong uwtable
define internal noundef zeroext i1 @cmd_write_multiple(ptr noundef initializes((665, 666), (872, 888)) %s, i8 noundef zeroext %cmd) #0 {
entry:
  %cmp = icmp eq i8 %cmd, 57
  %blk = getelementptr inbounds nuw i8, ptr %s, i64 672
  %0 = load ptr, ptr %blk, align 8
  %tobool.not = icmp eq ptr %0, null
  br i1 %tobool.not, label %if.then, label %lor.lhs.false

lor.lhs.false:                                    ; preds = %entry
  %mult_sectors = getelementptr inbounds nuw i8, ptr %s, i64 48
  %1 = load i32, ptr %mult_sectors, align 8
  %tobool2.not = icmp eq i32 %1, 0
  br i1 %tobool2.not, label %if.then, label %if.end

if.then:                                          ; preds = %lor.lhs.false, %entry
  %status.i = getelementptr inbounds nuw i8, ptr %s, i64 665
  %error.i = getelementptr inbounds nuw i8, ptr %s, i64 649
  store i8 4, ptr %error.i, align 1
  %end_transfer_func.i.i.i = getelementptr inbounds nuw i8, ptr %s, i64 864
  store ptr @ide_transfer_stop, ptr %end_transfer_func.i.i.i, align 8
  %io_buffer.i.i.i = getelementptr inbounds nuw i8, ptr %s, i64 888
  %2 = load ptr, ptr %io_buffer.i.i.i, align 8
  %data_ptr.i.i.i = getelementptr inbounds nuw i8, ptr %s, i64 872
  store ptr %2, ptr %data_ptr.i.i.i, align 8
  %data_end.i.i.i = getelementptr inbounds nuw i8, ptr %s, i64 880
  store ptr %2, ptr %data_end.i.i.i, align 8
  store i8 65, ptr %status.i, align 1
  %s.val.i.i = load ptr, ptr %s, align 8
  %3 = getelementptr i8, ptr %s.val.i.i, i64 2120
  %s.val.val.i.i = load ptr, ptr %3, align 8
  %4 = load ptr, ptr %s.val.val.i.i, align 8
  %cmd_done.i.i.i = getelementptr inbounds nuw i8, ptr %4, i64 64
  %5 = load ptr, ptr %cmd_done.i.i.i, align 8
  %tobool.not.i.i.i = icmp eq ptr %5, null
  br i1 %tobool.not.i.i.i, label %return, label %if.then.i.i.i

if.then.i.i.i:                                    ; preds = %if.then
  tail call void %5(ptr noundef nonnull %s.val.val.i.i) #17
  br label %return

if.end:                                           ; preds = %lor.lhs.false
  %conv.i = zext i1 %cmp to i8
  %lba481.i = getelementptr inbounds nuw i8, ptr %s, i64 668
  store i8 %conv.i, ptr %lba481.i, align 4
  %nsector.i = getelementptr inbounds nuw i8, ptr %s, i64 652
  %6 = load i32, ptr %nsector.i, align 4
  %tobool3.not.i = icmp eq i32 %6, 0
  br i1 %cmp, label %if.else.i, label %if.then.i

if.then.i:                                        ; preds = %if.end
  br i1 %tobool3.not.i, label %if.end17.sink.split.i, label %ide_cmd_lba48_transform.exit

if.else.i:                                        ; preds = %if.end
  %hob_nsector.i = getelementptr inbounds nuw i8, ptr %s, i64 660
  %7 = load i8, ptr %hob_nsector.i, align 4
  %tobool8.not.i = icmp eq i8 %7, 0
  %or.cond.i = select i1 %tobool3.not.i, i1 %tobool8.not.i, i1 false
  br i1 %or.cond.i, label %if.end17.sink.split.i, label %if.else11.i

if.else11.i:                                      ; preds = %if.else.i
  %conv14.i = zext i8 %7 to i32
  %shl.i = shl nuw nsw i32 %conv14.i, 8
  %or.i = or i32 %shl.i, %6
  br label %if.end17.sink.split.i

if.end17.sink.split.i:                            ; preds = %if.else11.i, %if.else.i, %if.then.i
  %.sink.i = phi i32 [ %or.i, %if.else11.i ], [ 256, %if.then.i ], [ 65536, %if.else.i ]
  store i32 %.sink.i, ptr %nsector.i, align 4
  br label %ide_cmd_lba48_transform.exit

ide_cmd_lba48_transform.exit:                     ; preds = %if.then.i, %if.end17.sink.split.i
  %8 = phi i32 [ %6, %if.then.i ], [ %.sink.i, %if.end17.sink.split.i ]
  %req_nb_sectors = getelementptr inbounds nuw i8, ptr %s, i64 856
  store i32 %1, ptr %req_nb_sectors, align 8
  %cond = tail call i32 @llvm.umin.i32(i32 %8, i32 %1)
  %status = getelementptr inbounds nuw i8, ptr %s, i64 665
  store i8 80, ptr %status, align 1
  %io_buffer = getelementptr inbounds nuw i8, ptr %s, i64 888
  %9 = load ptr, ptr %io_buffer, align 8
  %mul = shl i32 %cond, 9
  %call.i = tail call zeroext i1 @ide_transfer_start_norecurse(ptr noundef nonnull %s, ptr noundef %9, i32 noundef %mul, ptr noundef nonnull @ide_sector_write)
  br i1 %call.i, label %if.then.i14, label %ide_transfer_start.exit

if.then.i14:                                      ; preds = %ide_cmd_lba48_transform.exit
  tail call void @ide_sector_write(ptr noundef nonnull %s) #17
  br label %ide_transfer_start.exit

ide_transfer_start.exit:                          ; preds = %ide_cmd_lba48_transform.exit, %if.then.i14
  %media_changed = getelementptr inbounds nuw i8, ptr %s, i64 944
  store i32 1, ptr %media_changed, align 8
  br label %return

return:                                           ; preds = %if.then.i.i.i, %if.then, %ide_transfer_start.exit
  %retval.0 = phi i1 [ false, %ide_transfer_start.exit ], [ true, %if.then ], [ true, %if.then.i.i.i ]
  ret i1 %retval.0
}